target datalayout = "e-m:e-p270:32:32-p271:32:32-p272:64:64-i64:64-i128:128-f80:128-n8:16:32:64-S128"
target triple = "x86_64-pc-linux-gnu"

%struct.LZ4_stream_t_internal = type { [4096 x i32], ptr, ptr, i32, i32, i32 }
%union.LZ4_stream_u = type { %struct.LZ4_stream_t_internal }

; Function Attrs: mustprogress uwtable
define i32 @LZ4_compress_fast(ptr noundef %0, ptr noundef %1, i32 noundef %2, i32 noundef %3, i32 noundef %4) #1 {
  %6 = alloca ptr, align 8
  %7 = alloca ptr, align 8
  %8 = alloca i32, align 4
  %9 = alloca i32, align 4
  %10 = alloca i32, align 4
  %11 = alloca i32, align 4
  %12 = alloca %union.LZ4_stream_u, align 8
  %13 = alloca ptr, align 8
  store ptr %0, ptr %6, align 8, !tbaa !12
  store ptr %1, ptr %7, align 8, !tbaa !12
  store i32 %2, ptr %8, align 4, !tbaa !6
  store i32 %3, ptr %9, align 4, !tbaa !6
  store i32 %4, ptr %10, align 4, !tbaa !6
  call void @llvm.lifetime.start.p0(i64 4, ptr %11) #12
  call void @llvm.lifetime.start.p0(i64 16416, ptr %12) #12
  call void @llvm.lifetime.start.p0(i64 8, ptr %13) #12
  store ptr %12, ptr %13, align 8, !tbaa !35
  %14 = load ptr, ptr %13, align 8, !tbaa !35
  %15 = load ptr, ptr %6, align 8, !tbaa !12
  %16 = load ptr, ptr %7, align 8, !tbaa !12
  %17 = load i32, ptr %8, align 4, !tbaa !6
  %18 = load i32, ptr %9, align 4, !tbaa !6
  %19 = load i32, ptr %10, align 4, !tbaa !6
  %20 = call i32 @LZ4_compress_fast_extState(ptr noundef %14, ptr noundef %15, ptr noundef %16, i32 noundef %17, i32 noundef %18, i32 noundef %19)
  store i32 %20, ptr %11, align 4, !tbaa !6
  %21 = load i32, ptr %11, align 4, !tbaa !6
  call void @llvm.lifetime.end.p0(i64 8, ptr %13) #12
  call void @llvm.lifetime.end.p0(i64 16416, ptr %12) #12
  call void @llvm.lifetime.end.p0(i64 4, ptr %11) #12
  ret i32 %21
}

; Function Attrs: mustprogress uwtable
define i32 @LZ4_compress_default(ptr noundef %0, ptr noundef %1, i32 noundef %2, i32 noundef %3) #1 {
  %5 = alloca ptr, align 8
  %6 = alloca ptr, align 8
  %7 = alloca i32, align 4
  %8 = alloca i32, align 4
  store ptr %0, ptr %5, align 8, !tbaa !12
  store ptr %1, ptr %6, align 8, !tbaa !12
  store i32 %2, ptr %7, align 4, !tbaa !6
  store i32 %3, ptr %8, align 4, !tbaa !6
  %9 = load ptr, ptr %5, align 8, !tbaa !12
  %10 = load ptr, ptr %6, align 8, !tbaa !12
  %11 = load i32, ptr %7, align 4, !tbaa !6
  %12 = load i32, ptr %8, align 4, !tbaa !6
  %13 = call i32 @LZ4_compress_fast(ptr noundef %9, ptr noundef %10, i32 noundef %11, i32 noundef %12, i32 noundef 1)
  ret i32 %13
}

; Function Attrs: mustprogress nounwind uwtable
define i32 @LZ4_compressBound(i32 noundef %0) #0 {
  %2 = alloca i32, align 4
  store i32 %0, ptr %2, align 4, !tbaa !6
  %3 = load i32, ptr %2, align 4, !tbaa !6
  %4 = icmp ugt i32 %3, 2113929216
  br i1 %4, label %5, label %6

5:                                                ; preds = %1
  br label %12

6:                                                ; preds = %1
  %7 = load i32, ptr %2, align 4, !tbaa !6
  %8 = load i32, ptr %2, align 4, !tbaa !6
  %9 = sdiv i32 %8, 255
  %10 = add nsw i32 %7, %9
  %11 = add nsw i32 %10, 16
  br label %12

12:                                               ; preds = %6, %5
  %13 = phi i32 [ 0, %5 ], [ %11, %6 ]
  ret i32 %13
}

; Function Attrs: mustprogress uwtable
define i32 @LZ4_compress(ptr noundef %0, ptr noundef %1, i32 noundef %2) #1 {
  %4 = alloca ptr, align 8
  %5 = alloca ptr, align 8
  %6 = alloca i32, align 4
  store ptr %0, ptr %4, align 8, !tbaa !12
  store ptr %1, ptr %5, align 8, !tbaa !12
  store i32 %2, ptr %6, align 4, !tbaa !6
  %7 = load ptr, ptr %4, align 8, !tbaa !12
  %8 = load ptr, ptr %5, align 8, !tbaa !12
  %9 = load i32, ptr %6, align 4, !tbaa !6
  %10 = load i32, ptr %6, align 4, !tbaa !6
  %11 = call i32 @LZ4_compressBound(i32 noundef %10)
  %12 = call i32 @LZ4_compress_default(ptr noundef %7, ptr noundef %8, i32 noundef %9, i32 noundef %11)
  ret i32 %12
}