; Function Attrs: mustprogress nofree norecurse nosync nounwind memory(readwrite, inaccessiblemem: none) uwtable
define i32 @LZ4_compress(ptr noundef %0, ptr noundef %1, i32 noundef %2) local_unnamed_addr #1 {
  %4 = alloca %union.LZ4_stream_u, align 8
  %5 = icmp ugt i32 %2, 2113929216
  br i1 %5, label %LZ4_compressBound.exit, label %6

6:                                                ; preds = %3
  %7 = udiv i32 %2, 255
  %8 = add nuw nsw i32 %2, 16
  %9 = add nuw nsw i32 %8, %7
  br label %LZ4_compressBound.exit

LZ4_compressBound.exit:                           ; preds = %3, %6
  %10 = phi i32 [ %9, %6 ], [ 0, %3 ]
  call void @llvm.lifetime.start.p0(i64 16416, ptr nonnull %4) #18
  %11 = call i32 @LZ4_compress_fast_extState(ptr noundef nonnull %4, ptr noundef %0, ptr noundef %1, i32 noundef %2, i32 noundef %10, i32 noundef 1)
  call void @llvm.lifetime.end.p0(i64 16416, ptr nonnull %4) #18
  ret i32 %11
}